target datalayout = "e-m:e-p270:32:32-p271:32:32-p272:64:64-i64:64-i128:128-f80:128-n8:16:32:64-S128"
target triple = "x86_64-pc-linux-gnu"

%struct._object = type { %union.anon, ptr }
%union.anon = type { i64 }

@_Py_NoneStruct = external global %struct._object, align 8
@.str.51 = private unnamed_addr constant [17 x i8] c"PyErr_Occurred()\00", align 1
@.str.52 = private unnamed_addr constant [47 x i8] c"../cpython/Modules/_testlimitedcapi/abstract.c\00", align 1
@.str.53 = private unnamed_addr constant [18 x i8] c"!PyErr_Occurred()\00", align 1
@.str.58 = private unnamed_addr constant [4 x i8] c"Onn\00", align 1
@__PRETTY_FUNCTION__.sequence_delslice = private unnamed_addr constant [52 x i8] c"PyObject *sequence_delslice(PyObject *, PyObject *)\00", align 1

; Function Attrs: nounwind uwtable
define internal ptr @sequence_delslice(ptr noundef %0, ptr noundef %1) #0 {
  %3 = alloca ptr, align 8
  %4 = alloca ptr, align 8
  %5 = alloca ptr, align 8
  %6 = alloca ptr, align 8
  %7 = alloca i64, align 8
  %8 = alloca i64, align 8
  %9 = alloca i32, align 4
  %10 = alloca i32, align 4
  store ptr %0, ptr %4, align 8, !tbaa !3
  store ptr %1, ptr %5, align 8, !tbaa !3
  call void @llvm.lifetime.start.p0(i64 8, ptr %6) #4
  call void @llvm.lifetime.start.p0(i64 8, ptr %7) #4
  call void @llvm.lifetime.start.p0(i64 8, ptr %8) #4
  %11 = load ptr, ptr %5, align 8, !tbaa !3
  %12 = call i32 (ptr, ptr, ...) @PyArg_ParseTuple(ptr noundef %11, ptr noundef @.str.58, ptr noundef %6, ptr noundef %7, ptr noundef %8)
  %13 = icmp ne i32 %12, 0
  br i1 %13, label %15, label %14

14:                                               ; preds = %2
  store ptr null, ptr %3, align 8
  store i32 1, ptr %9, align 4
  br label %50

15:                                               ; preds = %2
  br label %16

16:                                               ; preds = %15
  %17 = load ptr, ptr %6, align 8, !tbaa !3
  %18 = icmp eq ptr %17, @_Py_NoneStruct
  br i1 %18, label %19, label %20

19:                                               ; preds = %16
  store ptr null, ptr %6, align 8, !tbaa !3
  br label %20

20:                                               ; preds = %19, %16
  br label %21

21:                                               ; preds = %20
  br label %22

22:                                               ; preds = %21
  br label %23

23:                                               ; preds = %22
  call void @llvm.lifetime.start.p0(i64 4, ptr %10) #4
  %24 = load ptr, ptr %6, align 8, !tbaa !3
  %25 = load i64, ptr %7, align 8, !tbaa !12
  %26 = load i64, ptr %8, align 8, !tbaa !12
  %27 = call i32 @PySequence_DelSlice(ptr noundef %24, i64 noundef %25, i64 noundef %26)
  store i32 %27, ptr %10, align 4, !tbaa !10
  %28 = load i32, ptr %10, align 4, !tbaa !10
  %29 = icmp eq i32 %28, -1
  br i1 %29, label %30, label %37

30:                                               ; preds = %23
  %31 = call ptr @PyErr_Occurred()
  %32 = icmp ne ptr %31, null
  br i1 %32, label %33, label %34

33:                                               ; preds = %30
  br label %36

34:                                               ; preds = %30
  call void @__assert_fail(ptr noundef @.str.51, ptr noundef @.str.52, i32 noundef 462, ptr noundef @__PRETTY_FUNCTION__.sequence_delslice) #5
  unreachable

35:                                               ; No predecessors!
  br label %36

36:                                               ; preds = %35, %33
  store ptr null, ptr %3, align 8
  store i32 1, ptr %9, align 4
  br label %47

37:                                               ; preds = %23
  %38 = call ptr @PyErr_Occurred()
  %39 = icmp ne ptr %38, null
  br i1 %39, label %41, label %40

40:                                               ; preds = %37
  br label %43

41:                                               ; preds = %37
  call void @__assert_fail(ptr noundef @.str.53, ptr noundef @.str.52, i32 noundef 462, ptr noundef @__PRETTY_FUNCTION__.sequence_delslice) #5
  unreachable

42:                                               ; No predecessors!
  br label %43

43:                                               ; preds = %42, %40
  %44 = load i32, ptr %10, align 4, !tbaa !10
  %45 = sext i32 %44 to i64
  %46 = call ptr @PyLong_FromLong(i64 noundef %45)
  store ptr %46, ptr %3, align 8
  store i32 1, ptr %9, align 4
  br label %47

47:                                               ; preds = %43, %36
  call void @llvm.lifetime.end.p0(i64 4, ptr %10) #4
  br label %50

48:                                               ; No predecessors!
  br label %49

49:                                               ; preds = %48
  store i32 0, ptr %9, align 4
  br label %50

50:                                               ; preds = %49, %47, %14
  call void @llvm.lifetime.end.p0(i64 8, ptr %8) #4
  call void @llvm.lifetime.end.p0(i64 8, ptr %7) #4
  call void @llvm.lifetime.end.p0(i64 8, ptr %6) #4
  %51 = load i32, ptr %9, align 4
  switch i32 %51, label %54 [
    i32 0, label %52
    i32 1, label %52
  ]

52:                                               ; preds = %50, %50
  %53 = load ptr, ptr %3, align 8
  ret ptr %53

54:                                               ; preds = %50
  unreachable
}