; Function Attrs: nounwind uwtable
define internal ptr @sequence_delslice(ptr readnone captures(none) %0, ptr noundef %1) #0 {
  %3 = alloca ptr, align 8
  %4 = alloca i64, align 8
  %5 = alloca i64, align 8
  call void @llvm.lifetime.start.p0(i64 8, ptr nonnull %3) #4
  call void @llvm.lifetime.start.p0(i64 8, ptr nonnull %4) #4
  call void @llvm.lifetime.start.p0(i64 8, ptr nonnull %5) #4
  %6 = call i32 (ptr, ptr, ...) @PyArg_ParseTuple(ptr noundef %1, ptr noundef nonnull @.str.58, ptr noundef nonnull %3, ptr noundef nonnull %4, ptr noundef nonnull %5) #4
  %.not = icmp eq i32 %6, 0
  br i1 %.not, label %25, label %7

7:                                                ; preds = %2
  %8 = load ptr, ptr %3, align 8, !tbaa !3
  %9 = icmp eq ptr %8, @_Py_NoneStruct
  br i1 %9, label %10, label %11

10:                                               ; preds = %7
  store ptr null, ptr %3, align 8, !tbaa !3
  br label %11

11:                                               ; preds = %7, %10
  %12 = phi ptr [ %8, %7 ], [ null, %10 ]
  %13 = load i64, ptr %4, align 8, !tbaa !10
  %14 = load i64, ptr %5, align 8, !tbaa !10
  %15 = call i32 @PySequence_DelSlice(ptr noundef %12, i64 noundef %13, i64 noundef %14) #4
  %16 = icmp eq i32 %15, -1
  %17 = call ptr @PyErr_Occurred() #4
  %.not5 = icmp eq ptr %17, null
  br i1 %16, label %18, label %20

18:                                               ; preds = %11
  br i1 %.not5, label %19, label %25

19:                                               ; preds = %18
  call void @__assert_fail(ptr noundef nonnull @.str.51, ptr noundef nonnull @.str.52, i32 noundef 462, ptr noundef nonnull @__PRETTY_FUNCTION__.sequence_delslice) #5
  unreachable

20:                                               ; preds = %11
  br i1 %.not5, label %22, label %21

21:                                               ; preds = %20
  call void @__assert_fail(ptr noundef nonnull @.str.53, ptr noundef nonnull @.str.52, i32 noundef 462, ptr noundef nonnull @__PRETTY_FUNCTION__.sequence_delslice) #5
  unreachable

22:                                               ; preds = %20
  %23 = sext i32 %15 to i64
  %24 = call ptr @PyLong_FromLong(i64 noundef %23) #4
  br label %25

25:                                               ; preds = %22, %18, %2
  %.0 = phi ptr [ null, %2 ], [ %24, %22 ], [ null, %18 ]
  call void @llvm.lifetime.end.p0(i64 8, ptr nonnull %5) #4
  call void @llvm.lifetime.end.p0(i64 8, ptr nonnull %4) #4
  call void @llvm.lifetime.end.p0(i64 8, ptr nonnull %3) #4
  ret ptr %.0
}